target datalayout = "e-m:e-p270:32:32-p271:32:32-p272:64:64-i64:64-i128:128-f80:128-n8:16:32:64-S128"
target triple = "x86_64-pc-linux-gnu"

%struct.triangles_t = type { ptr, i64, i64, i64 }
%struct.triangle_t = type { i32, [3 x %struct.tedge_t] }
%struct.tedge_t = type { ptr, ptr, i64 }

@tris = internal global %struct.triangles_t zeroinitializer, align 8

; Function Attrs: inlinehint nounwind uwtable
define internal ptr @triangles_at(ptr noundef %0, i64 noundef %1) #4 {
  %3 = alloca ptr, align 8
  %4 = alloca i64, align 8
  store ptr %0, ptr %3, align 8, !tbaa !59
  store i64 %1, ptr %4, align 8, !tbaa !19
  %5 = load ptr, ptr %3, align 8, !tbaa !59
  %6 = getelementptr inbounds nuw %struct.triangles_t, ptr %5, i32 0, i32 0
  %7 = load ptr, ptr %6, align 8, !tbaa !72
  %8 = load ptr, ptr %3, align 8, !tbaa !59
  %9 = getelementptr inbounds nuw %struct.triangles_t, ptr %8, i32 0, i32 1
  %10 = load i64, ptr %9, align 8, !tbaa !63
  %11 = load i64, ptr %4, align 8, !tbaa !19
  %12 = add i64 %10, %11
  %13 = load ptr, ptr %3, align 8, !tbaa !59
  %14 = getelementptr inbounds nuw %struct.triangles_t, ptr %13, i32 0, i32 3
  %15 = load i64, ptr %14, align 8, !tbaa !73
  %16 = urem i64 %12, %15
  %17 = getelementptr inbounds nuw %struct.triangle_t, ptr %7, i64 %16
  ret ptr %17
}

; Function Attrs: inlinehint nounwind uwtable
define internal void @triangles_get(ptr dead_on_unwind noalias writable sret(%struct.triangle_t) align 8 %0, ptr noundef %1, i64 noundef %2) #4 {
  %4 = alloca ptr, align 8
  %5 = alloca i64, align 8
  store ptr %1, ptr %4, align 8, !tbaa !59
  store i64 %2, ptr %5, align 8, !tbaa !19
  %6 = load ptr, ptr %4, align 8, !tbaa !59
  %7 = getelementptr inbounds nuw %struct.triangles_t, ptr %6, i32 0, i32 0
  %8 = load ptr, ptr %7, align 8, !tbaa !72
  %9 = load ptr, ptr %4, align 8, !tbaa !59
  %10 = getelementptr inbounds nuw %struct.triangles_t, ptr %9, i32 0, i32 1
  %11 = load i64, ptr %10, align 8, !tbaa !63
  %12 = load i64, ptr %5, align 8, !tbaa !19
  %13 = add i64 %11, %12
  %14 = load ptr, ptr %4, align 8, !tbaa !59
  %15 = getelementptr inbounds nuw %struct.triangles_t, ptr %14, i32 0, i32 3
  %16 = load i64, ptr %15, align 8, !tbaa !73
  %17 = urem i64 %13, %16
  %18 = getelementptr inbounds nuw %struct.triangle_t, ptr %8, i64 %17
  call void @llvm.memcpy.p0.p0.i64(ptr align 8 %0, ptr align 8 %18, i64 80, i1 false), !tbaa.struct !74
  ret void
}

; Function Attrs: nounwind uwtable
define internal zeroext i1 @marktripath(i64 noundef %0, i64 noundef %1) #0 {
  %3 = alloca i1, align 1
  %4 = alloca i64, align 8
  %5 = alloca i64, align 8
  %6 = alloca i32, align 4
  %7 = alloca %struct.triangle_t, align 8
  %8 = alloca i32, align 4
  %9 = alloca %struct.triangle_t, align 8
  %10 = alloca %struct.triangle_t, align 8
  store i64 %0, ptr %4, align 8, !tbaa !19
  store i64 %1, ptr %5, align 8, !tbaa !19
  call void @llvm.lifetime.start.p0(i64 4, ptr %6) #9
  %11 = load i64, ptr %4, align 8, !tbaa !19
  call void @triangles_get(ptr dead_on_unwind writable sret(%struct.triangle_t) align 8 %7, ptr noundef @tris, i64 noundef %11)
  %12 = getelementptr inbounds nuw %struct.triangle_t, ptr %7, i32 0, i32 0
  %13 = load i32, ptr %12, align 8, !tbaa !46
  %14 = icmp ne i32 %13, 0
  br i1 %14, label %15, label %16

15:                                               ; preds = %2
  store i1 false, ptr %3, align 1
  store i32 1, ptr %8, align 4
  br label %56

16:                                               ; preds = %2
  %17 = load i64, ptr %4, align 8, !tbaa !19
  %18 = call ptr @triangles_at(ptr noundef @tris, i64 noundef %17)
  %19 = getelementptr inbounds nuw %struct.triangle_t, ptr %18, i32 0, i32 0
  store i32 1, ptr %19, align 8, !tbaa !46
  %20 = load i64, ptr %4, align 8, !tbaa !19
  %21 = load i64, ptr %5, align 8, !tbaa !19
  %22 = icmp eq i64 %20, %21
  br i1 %22, label %23, label %24

23:                                               ; preds = %16
  store i1 true, ptr %3, align 1
  store i32 1, ptr %8, align 4
  br label %56

24:                                               ; preds = %16
  store i32 0, ptr %6, align 4, !tbaa !49
  br label %25

25:                                               ; preds = %49, %24
  %26 = load i32, ptr %6, align 4, !tbaa !49
  %27 = icmp slt i32 %26, 3
  br i1 %27, label %28, label %52

28:                                               ; preds = %25
  %29 = load i64, ptr %4, align 8, !tbaa !19
  call void @triangles_get(ptr dead_on_unwind writable sret(%struct.triangle_t) align 8 %9, ptr noundef @tris, i64 noundef %29)
  %30 = getelementptr inbounds nuw %struct.triangle_t, ptr %9, i32 0, i32 1
  %31 = load i32, ptr %6, align 4, !tbaa !49
  %32 = sext i32 %31 to i64
  %33 = getelementptr inbounds [3 x %struct.tedge_t], ptr %30, i64 0, i64 %32
  %34 = getelementptr inbounds nuw %struct.tedge_t, ptr %33, i32 0, i32 2
  %35 = load i64, ptr %34, align 8, !tbaa !50
  %36 = icmp ne i64 %35, -1
  br i1 %36, label %37, label %48

37:                                               ; preds = %28
  %38 = load i64, ptr %4, align 8, !tbaa !19
  call void @triangles_get(ptr dead_on_unwind writable sret(%struct.triangle_t) align 8 %10, ptr noundef @tris, i64 noundef %38)
  %39 = getelementptr inbounds nuw %struct.triangle_t, ptr %10, i32 0, i32 1
  %40 = load i32, ptr %6, align 4, !tbaa !49
  %41 = sext i32 %40 to i64
  %42 = getelementptr inbounds [3 x %struct.tedge_t], ptr %39, i64 0, i64 %41
  %43 = getelementptr inbounds nuw %struct.tedge_t, ptr %42, i32 0, i32 2
  %44 = load i64, ptr %43, align 8, !tbaa !50
  %45 = load i64, ptr %5, align 8, !tbaa !19
  %46 = call zeroext i1 @marktripath(i64 noundef %44, i64 noundef %45)
  br i1 %46, label %47, label %48

47:                                               ; preds = %37
  store i1 true, ptr %3, align 1
  store i32 1, ptr %8, align 4
  br label %56

48:                                               ; preds = %37, %28
  br label %49

49:                                               ; preds = %48
  %50 = load i32, ptr %6, align 4, !tbaa !49
  %51 = add nsw i32 %50, 1
  store i32 %51, ptr %6, align 4, !tbaa !49
  br label %25, !llvm.loop !69

52:                                               ; preds = %25
  %53 = load i64, ptr %4, align 8, !tbaa !19
  %54 = call ptr @triangles_at(ptr noundef @tris, i64 noundef %53)
  %55 = getelementptr inbounds nuw %struct.triangle_t, ptr %54, i32 0, i32 0
  store i32 0, ptr %55, align 8, !tbaa !46
  store i1 false, ptr %3, align 1
  store i32 1, ptr %8, align 4
  br label %56

56:                                               ; preds = %52, %47, %23, %15
  call void @llvm.lifetime.end.p0(i64 4, ptr %6) #9
  %57 = load i1, ptr %3, align 1
  ret i1 %57
}