; Function Attrs: nofree nosync nounwind memory(readwrite, inaccessiblemem: none) uwtable
define internal fastcc noundef zeroext i1 @marktripath(i64 noundef %0, i64 noundef %1) unnamed_addr #8 {
  %3 = alloca %struct.triangle_t, align 8
  %4 = alloca %struct.triangle_t, align 8
  %5 = load ptr, ptr @tris, align 8, !tbaa !44, !noalias !73
  %6 = load i64, ptr getelementptr inbounds nuw (i8, ptr @tris, i64 8), align 8, !tbaa !48, !noalias !73
  %7 = add i64 %6, %0
  %8 = load i64, ptr getelementptr inbounds nuw (i8, ptr @tris, i64 24), align 8, !tbaa !49, !noalias !73
  %9 = urem i64 %7, %8
  %10 = getelementptr inbounds nuw %struct.triangle_t, ptr %5, i64 %9
  %.sroa.0.0.copyload = load i32, ptr %10, align 8, !tbaa !51
  %.not = icmp eq i32 %.sroa.0.0.copyload, 0
  br i1 %.not, label %11, label %.loopexit

11:                                               ; preds = %2
  store i32 1, ptr %10, align 8, !tbaa !64
  %12 = icmp eq i64 %0, %1
  br i1 %12, label %.loopexit, label %.preheader

.preheader:                                       ; preds = %11
  %13 = getelementptr inbounds nuw i8, ptr %3, i64 24
  %14 = getelementptr inbounds nuw i8, ptr %4, i64 24
  %.pre20 = load ptr, ptr @tris, align 8, !tbaa !44, !noalias !76
  %.pre22 = load i64, ptr getelementptr inbounds nuw (i8, ptr @tris, i64 8), align 8, !tbaa !48, !noalias !76
  %.pre24 = load i64, ptr getelementptr inbounds nuw (i8, ptr @tris, i64 24), align 8, !tbaa !49, !noalias !76
  br label %15

15:                                               ; preds = %.preheader, %29
  %16 = phi i64 [ %.pre24, %.preheader ], [ %30, %29 ]
  %17 = phi i64 [ %.pre22, %.preheader ], [ %31, %29 ]
  %18 = phi ptr [ %.pre20, %.preheader ], [ %32, %29 ]
  %indvars.iv = phi i64 [ 0, %.preheader ], [ %indvars.iv.next, %29 ]
  %19 = add i64 %17, %0
  %20 = urem i64 %19, %16
  %21 = getelementptr inbounds nuw %struct.triangle_t, ptr %18, i64 %20
  call void @llvm.memcpy.p0.p0.i64(ptr noundef nonnull align 8 dereferenceable(80) %3, ptr noundef nonnull align 8 dereferenceable(80) %21, i64 80, i1 false), !tbaa.struct !50
  %22 = mul nuw nsw i64 %indvars.iv, 24
  %23 = getelementptr i8, ptr %13, i64 %22
  %24 = load i64, ptr %23, align 8, !tbaa !40
  %.not15 = icmp eq i64 %24, -1
  br i1 %.not15, label %29, label %25

25:                                               ; preds = %15
  call void @llvm.memcpy.p0.p0.i64(ptr noundef nonnull align 8 dereferenceable(80) %4, ptr noundef nonnull align 8 dereferenceable(80) %21, i64 80, i1 false), !tbaa.struct !50
  %26 = getelementptr i8, ptr %14, i64 %22
  %27 = load i64, ptr %26, align 8, !tbaa !40
  %28 = tail call fastcc zeroext i1 @marktripath(i64 noundef %27, i64 noundef %1)
  %.pre = load ptr, ptr @tris, align 8, !tbaa !44, !noalias !76
  %.pre21 = load i64, ptr getelementptr inbounds nuw (i8, ptr @tris, i64 8), align 8, !tbaa !48, !noalias !76
  %.pre23 = load i64, ptr getelementptr inbounds nuw (i8, ptr @tris, i64 24), align 8, !tbaa !49, !noalias !76
  br i1 %28, label %.loopexit, label %29

29:                                               ; preds = %15, %25
  %30 = phi i64 [ %16, %15 ], [ %.pre23, %25 ]
  %31 = phi i64 [ %17, %15 ], [ %.pre21, %25 ]
  %32 = phi ptr [ %18, %15 ], [ %.pre, %25 ]
  %indvars.iv.next = add nuw nsw i64 %indvars.iv, 1
  %exitcond.not = icmp eq i64 %indvars.iv.next, 3
  br i1 %exitcond.not, label %33, label %15, !llvm.loop !79

33:                                               ; preds = %29
  %34 = add i64 %31, %0
  %35 = urem i64 %34, %30
  %36 = getelementptr inbounds nuw %struct.triangle_t, ptr %32, i64 %35
  store i32 0, ptr %36, align 8, !tbaa !64
  br label %.loopexit

.loopexit:                                        ; preds = %25, %11, %2, %33
  %.012 = phi i1 [ false, %33 ], [ false, %2 ], [ true, %11 ], [ true, %25 ]
  ret i1 %.012
}